target datalayout = "e-m:e-p270:32:32-p271:32:32-p272:64:64-i64:64-i128:128-f80:128-n8:16:32:64-S128"
target triple = "x86_64-pc-linux-gnu"

%struct.yy_buffer_state = type { ptr, ptr, ptr, i32, i32, i32, i32, i32, i32, i32, i32, i32 }

@aagin = global ptr null, align 8
@yy_buffer_stack = internal global ptr null, align 8
@yy_buffer_stack_top = internal global i64 0, align 8
@yy_c_buf_p = internal global ptr null, align 8
@yy_hold_char = internal global i8 0, align 1
@aagtext = global ptr null, align 8
@yy_n_chars = internal global i32 0, align 4
@yy_did_buffer_switch_on_eof = internal global i32 0, align 4
@.str.27 = private unnamed_addr constant [49 x i8] c"out of dynamic memory in yyensure_buffer_stack()\00", align 1
@yy_buffer_stack_max = internal global i64 0, align 8

; Function Attrs: nounwind uwtable
define ptr @aagrealloc(ptr noundef %0, i64 noundef %1) #0 {
  %3 = alloca ptr, align 8
  %4 = alloca i64, align 8
  store ptr %0, ptr %3, align 8
  store i64 %1, ptr %4, align 8
  %5 = load ptr, ptr %3, align 8
  %6 = load i64, ptr %4, align 8
  %7 = call ptr @realloc(ptr noundef %5, i64 noundef %6) #19
  ret ptr %7
}

; Function Attrs: nounwind uwtable
define ptr @aagalloc(i64 noundef %0) #0 {
  %2 = alloca i64, align 8
  store i64 %0, ptr %2, align 8
  %3 = load i64, ptr %2, align 8
  %4 = call noalias ptr @malloc(i64 noundef %3) #17
  ret ptr %4
}

; Function Attrs: nounwind uwtable
define internal void @aag_load_buffer_state() #0 {
  %1 = load ptr, ptr @yy_buffer_stack, align 8
  %2 = load i64, ptr @yy_buffer_stack_top, align 8
  %3 = getelementptr inbounds ptr, ptr %1, i64 %2
  %4 = load ptr, ptr %3, align 8
  %5 = getelementptr inbounds %struct.yy_buffer_state, ptr %4, i32 0, i32 4
  %6 = load i32, ptr %5, align 4
  store i32 %6, ptr @yy_n_chars, align 4
  %7 = load ptr, ptr @yy_buffer_stack, align 8
  %8 = load i64, ptr @yy_buffer_stack_top, align 8
  %9 = getelementptr inbounds ptr, ptr %7, i64 %8
  %10 = load ptr, ptr %9, align 8
  %11 = getelementptr inbounds %struct.yy_buffer_state, ptr %10, i32 0, i32 2
  %12 = load ptr, ptr %11, align 8
  store ptr %12, ptr @yy_c_buf_p, align 8
  store ptr %12, ptr @aagtext, align 8
  %13 = load ptr, ptr @yy_buffer_stack, align 8
  %14 = load i64, ptr @yy_buffer_stack_top, align 8
  %15 = getelementptr inbounds ptr, ptr %13, i64 %14
  %16 = load ptr, ptr %15, align 8
  %17 = getelementptr inbounds %struct.yy_buffer_state, ptr %16, i32 0, i32 0
  %18 = load ptr, ptr %17, align 8
  store ptr %18, ptr @aagin, align 8
  %19 = load ptr, ptr @yy_c_buf_p, align 8
  %20 = load i8, ptr %19, align 1
  store i8 %20, ptr @yy_hold_char, align 1
  ret void
}

; Function Attrs: nounwind uwtable
define internal void @aagensure_buffer_stack() #0 {
  %1 = alloca i64, align 8
  %2 = alloca i64, align 8
  %3 = load ptr, ptr @yy_buffer_stack, align 8
  %4 = icmp ne ptr %3, null
  br i1 %4, label %17, label %5

5:                                                ; preds = %0
  store i64 1, ptr %1, align 8
  %6 = load i64, ptr %1, align 8
  %7 = mul i64 %6, 8
  %8 = call ptr @aagalloc(i64 noundef %7)
  store ptr %8, ptr @yy_buffer_stack, align 8
  %9 = load ptr, ptr @yy_buffer_stack, align 8
  %10 = icmp ne ptr %9, null
  br i1 %10, label %12, label %11

11:                                               ; preds = %5
  call void @yy_fatal_error(ptr noundef @.str.27) #13
  unreachable

12:                                               ; preds = %5
  %13 = load ptr, ptr @yy_buffer_stack, align 8
  %14 = load i64, ptr %1, align 8
  %15 = mul i64 %14, 8
  call void @llvm.memset.p0.i64(ptr align 8 %13, i8 0, i64 %15, i1 false)
  %16 = load i64, ptr %1, align 8
  store i64 %16, ptr @yy_buffer_stack_max, align 8
  store i64 0, ptr @yy_buffer_stack_top, align 8
  br label %40

17:                                               ; preds = %0
  %18 = load i64, ptr @yy_buffer_stack_top, align 8
  %19 = load i64, ptr @yy_buffer_stack_max, align 8
  %20 = sub i64 %19, 1
  %21 = icmp uge i64 %18, %20
  br i1 %21, label %22, label %40

22:                                               ; preds = %17
  store i64 8, ptr %2, align 8
  %23 = load i64, ptr @yy_buffer_stack_max, align 8
  %24 = load i64, ptr %2, align 8
  %25 = add i64 %23, %24
  store i64 %25, ptr %1, align 8
  %26 = load ptr, ptr @yy_buffer_stack, align 8
  %27 = load i64, ptr %1, align 8
  %28 = mul i64 %27, 8
  %29 = call ptr @aagrealloc(ptr noundef %26, i64 noundef %28)
  store ptr %29, ptr @yy_buffer_stack, align 8
  %30 = load ptr, ptr @yy_buffer_stack, align 8
  %31 = icmp ne ptr %30, null
  br i1 %31, label %33, label %32

32:                                               ; preds = %22
  call void @yy_fatal_error(ptr noundef @.str.27) #13
  unreachable

33:                                               ; preds = %22
  %34 = load ptr, ptr @yy_buffer_stack, align 8
  %35 = load i64, ptr @yy_buffer_stack_max, align 8
  %36 = getelementptr inbounds ptr, ptr %34, i64 %35
  %37 = load i64, ptr %2, align 8
  %38 = mul i64 %37, 8
  call void @llvm.memset.p0.i64(ptr align 8 %36, i8 0, i64 %38, i1 false)
  %39 = load i64, ptr %1, align 8
  store i64 %39, ptr @yy_buffer_stack_max, align 8
  br label %40

40:                                               ; preds = %33, %17, %12
  ret void
}

; Function Attrs: nounwind uwtable
define void @aag_switch_to_buffer(ptr noundef %0) #0 {
  %2 = alloca ptr, align 8
  store ptr %0, ptr %2, align 8
  call void @aagensure_buffer_stack()
  %3 = load ptr, ptr @yy_buffer_stack, align 8
  %4 = icmp ne ptr %3, null
  br i1 %4, label %5, label %10

5:                                                ; preds = %1
  %6 = load ptr, ptr @yy_buffer_stack, align 8
  %7 = load i64, ptr @yy_buffer_stack_top, align 8
  %8 = getelementptr inbounds ptr, ptr %6, i64 %7
  %9 = load ptr, ptr %8, align 8
  br label %11

10:                                               ; preds = %1
  br label %11

11:                                               ; preds = %10, %5
  %12 = phi ptr [ %9, %5 ], [ null, %10 ]
  %13 = load ptr, ptr %2, align 8
  %14 = icmp eq ptr %12, %13
  br i1 %14, label %15, label %16

15:                                               ; preds = %11
  br label %46

16:                                               ; preds = %11
  %17 = load ptr, ptr @yy_buffer_stack, align 8
  %18 = icmp ne ptr %17, null
  br i1 %18, label %19, label %25

19:                                               ; preds = %16
  %20 = load ptr, ptr @yy_buffer_stack, align 8
  %21 = load i64, ptr @yy_buffer_stack_top, align 8
  %22 = getelementptr inbounds ptr, ptr %20, i64 %21
  %23 = load ptr, ptr %22, align 8
  %24 = icmp ne ptr %23, null
  br i1 %24, label %26, label %41

25:                                               ; preds = %16
  br i1 false, label %26, label %41

26:                                               ; preds = %25, %19
  %27 = load i8, ptr @yy_hold_char, align 1
  %28 = load ptr, ptr @yy_c_buf_p, align 8
  store i8 %27, ptr %28, align 1
  %29 = load ptr, ptr @yy_c_buf_p, align 8
  %30 = load ptr, ptr @yy_buffer_stack, align 8
  %31 = load i64, ptr @yy_buffer_stack_top, align 8
  %32 = getelementptr inbounds ptr, ptr %30, i64 %31
  %33 = load ptr, ptr %32, align 8
  %34 = getelementptr inbounds %struct.yy_buffer_state, ptr %33, i32 0, i32 2
  store ptr %29, ptr %34, align 8
  %35 = load i32, ptr @yy_n_chars, align 4
  %36 = load ptr, ptr @yy_buffer_stack, align 8
  %37 = load i64, ptr @yy_buffer_stack_top, align 8
  %38 = getelementptr inbounds ptr, ptr %36, i64 %37
  %39 = load ptr, ptr %38, align 8
  %40 = getelementptr inbounds %struct.yy_buffer_state, ptr %39, i32 0, i32 4
  store i32 %35, ptr %40, align 4
  br label %41

41:                                               ; preds = %26, %25, %19
  %42 = load ptr, ptr %2, align 8
  %43 = load ptr, ptr @yy_buffer_stack, align 8
  %44 = load i64, ptr @yy_buffer_stack_top, align 8
  %45 = getelementptr inbounds ptr, ptr %43, i64 %44
  store ptr %42, ptr %45, align 8
  call void @aag_load_buffer_state()
  store i32 1, ptr @yy_did_buffer_switch_on_eof, align 4
  br label %46

46:                                               ; preds = %41, %15
  ret void
}