; Function Attrs: nounwind uwtable
define void @aag_switch_to_buffer(ptr noundef %0) local_unnamed_addr #1 {
  %2 = load ptr, ptr @yy_buffer_stack, align 8
  %.not.i = icmp eq ptr %2, null
  br i1 %.not.i, label %3, label %7

3:                                                ; preds = %1
  %4 = tail call noalias noundef dereferenceable_or_null(8) ptr @malloc(i64 noundef 8) #25
  store ptr %4, ptr @yy_buffer_stack, align 8
  %.not9.i = icmp eq ptr %4, null
  br i1 %.not9.i, label %5, label %6

5:                                                ; preds = %3
  tail call fastcc void @yy_fatal_error(ptr noundef nonnull @.str.27) #26
  unreachable

6:                                                ; preds = %3
  store i64 0, ptr %4, align 8
  store i64 1, ptr @yy_buffer_stack_max, align 8
  store i64 0, ptr @yy_buffer_stack_top, align 8
  br label %.thread

7:                                                ; preds = %1
  %8 = load i64, ptr @yy_buffer_stack_top, align 8
  %9 = load i64, ptr @yy_buffer_stack_max, align 8
  %10 = add i64 %9, -1
  %.not10.i = icmp ult i64 %8, %10
  br i1 %.not10.i, label %.thread, label %11

11:                                               ; preds = %7
  %12 = add i64 %9, 8
  %13 = shl i64 %12, 3
  %14 = tail call noalias noundef ptr @realloc(ptr noundef nonnull %2, i64 noundef %13) #27
  store ptr %14, ptr @yy_buffer_stack, align 8
  %.not11.i = icmp eq ptr %14, null
  br i1 %.not11.i, label %15, label %16

15:                                               ; preds = %11
  tail call fastcc void @yy_fatal_error(ptr noundef nonnull @.str.27) #26
  unreachable

16:                                               ; preds = %11
  %17 = getelementptr inbounds ptr, ptr %14, i64 %9
  tail call void @llvm.memset.p0.i64(ptr noundef nonnull align 8 dereferenceable(64) %17, i8 0, i64 64, i1 false)
  store i64 %12, ptr @yy_buffer_stack_max, align 8
  br label %.thread

.thread:                                          ; preds = %16, %7, %6
  %18 = phi i64 [ 0, %6 ], [ %8, %7 ], [ %8, %16 ]
  %19 = phi ptr [ %4, %6 ], [ %2, %7 ], [ %14, %16 ]
  %20 = getelementptr inbounds ptr, ptr %19, i64 %18
  %21 = load ptr, ptr %20, align 8
  %22 = icmp eq ptr %21, %0
  br i1 %22, label %41, label %23

23:                                               ; preds = %.thread
  %.not5 = icmp eq ptr %21, null
  br i1 %.not5, label %32, label %24

24:                                               ; preds = %23
  %25 = load i8, ptr @yy_hold_char, align 1
  %26 = load ptr, ptr @yy_c_buf_p, align 8
  store i8 %25, ptr %26, align 1
  %27 = load ptr, ptr %20, align 8
  %28 = getelementptr inbounds nuw i8, ptr %27, i64 16
  store ptr %26, ptr %28, align 8
  %29 = load i32, ptr @yy_n_chars, align 4
  %30 = load ptr, ptr %20, align 8
  %31 = getelementptr inbounds nuw i8, ptr %30, i64 28
  store i32 %29, ptr %31, align 4
  br label %32

32:                                               ; preds = %24, %23
  %33 = getelementptr inbounds ptr, ptr %19, i64 %18
  store ptr %0, ptr %33, align 8
  %34 = getelementptr inbounds nuw i8, ptr %0, i64 28
  %35 = load i32, ptr %34, align 4
  store i32 %35, ptr @yy_n_chars, align 4
  %36 = getelementptr inbounds nuw i8, ptr %0, i64 16
  %37 = load ptr, ptr %36, align 8
  store ptr %37, ptr @yy_c_buf_p, align 8
  store ptr %37, ptr @aagtext, align 8
  %38 = load ptr, ptr %33, align 8
  %39 = load ptr, ptr %38, align 8
  store ptr %39, ptr @aagin, align 8
  %40 = load i8, ptr %37, align 1
  store i8 %40, ptr @yy_hold_char, align 1
  br label %41

41:                                               ; preds = %.thread, %32
  ret void
}